(lp1
(i__main__
sc
p2
(dp3
S'loc'
p4
(i__main__
locator
p5
(dp6
S'depth'
p7
I4
sS'static'
p8
(dp9
S'ecc'
p10
F0.020799999999999999
sS'ano'
p11
F0
sS'isLocked'
p12
I01
sS'per'
p13
F0
sS'period'
p14
F594.7688720661987
sS'epoch'
p15
F1526152106.239356
sS'smi'
p16
I150000
sS'spin'
p17
F0.0068838989822476698
sS'dayProgressAtEpoch'
p18
F1
sS'sma'
p19
F150032.45853252444
ssS'name'
p20
S'198:145:9w3:Harfang'
p21
sS'parent'
p22
(i__main__
locator
p23
(dp24
g7
I3
sg8
(dp25
Vspectral
p26
VB
sVirrOuterAU
p27
F2.7484980989530179
sVabsMag
p28
F0.67433599308820957
sVpow
p29
VO6N6AErBNFFAh7PZxVTN9fZk4GIP3UXZn7eS4nVGx4=
p30
sVtrig
p31
V9w3
p32
sVlumiSU
p33
F46.678441488500347
sVyly
p34
F5.6352399999999996
sVnbPl
p35
I9
sVHZcenterAU
p36
F10.025926922754191
sVseed
p37
I31098407
sVlink
p38
I2
sVxly
p39
F8.5411800000000007
sVmSU
p40
F2.825612
sVy
I145
sVx
I198
sVspin
p41
F5409216.2694857148
sVid
p42
Vquadrant:198:145:9w3
p43
sVcls
p44
I6
ssg20
S'198:145:9w3'
p45
sg22
(i__main__
locator
p46
(dp47
g7
I2
sg20
S'198:145'
p48
sbsbsbsg20
S'Harfang'
p49
sba(i__main__
sc
p50
(dp51
g4
(i__main__
locator
p52
(dp53
S'dynamic'
p54
(dp55
S'spinFormatted'
p56
S'20m43s'
p57
sS'fromPer'
p58
S'1s'
p59
sS'dayProgress'
p60
F8.0403486775848521e-05
sS'toPer'
p61
S'20m42s'
p62
sS'meanAno'
p63
F0.00050519000675662302
sS'rho'
p64
F245330.33178174659
sS'progress'
p65
S'0.11%'
p66
sS'localTimeFormatted'
p67
S'0s'
p68
sS'theta'
p69
F0.0070922567779336133
sS'periodFormatted'
p70
S'20m43s'
p71
sS'localTime'
p72
F0.099999904632455491
ssg7
I4
sg8
(dp73
g10
F0.79130999999999996
sg11
F0
sg12
I01
sg13
F0
sg14
F1243.7259706315785
sg15
F1526152106.239356
sg16
I150005
sg17
F0.014394976511939566
sg18
F1
sg19
F245340.66640483594
ssg20
S'198:145:9w3:Cromwell'
p74
sg22
(i__main__
locator
p75
(dp76
g7
I3
sg8
(dp77
Vspectral
p78
VB
sVirrOuterAU
p79
F2.7484980989530179
sVabsMag
p80
F0.67433599308820957
sVpow
p81
VO6N6AErBNFFAh7PZxVTN9fZk4GIP3UXZn7eS4nVGx4=
p82
sVtrig
p83
V9w3
p84
sVlumiSU
p85
F46.678441488500347
sVyly
p86
F5.6352399999999996
sVnbPl
p87
I9
sVHZcenterAU
p88
F10.025926922754191
sVseed
p89
I31098407
sVlink
p90
I2
sVxly
p91
F8.5411800000000007
sVmSU
p92
F2.825612
sVy
I145
sVx
I198
sVspin
p93
F5409216.2694857148
sVid
p94
Vquadrant:198:145:9w3
p95
sVcls
p96
I6
ssg20
S'198:145:9w3'
p97
sg22
(i__main__
locator
p98
(dp99
g7
I2
sg20
S'198:145'
p100
sbsbsbsg20
S'Cromwell'
p101
sba.