(lp1
(i__main__
sc
p2
(dp3
S'loc'
p4
(i__main__
locator
p5
(dp6
S'depth'
p7
I4
sS'static'
p8
(dp9
S'ecc'
p10
F0.020799999999999999
sS'ano'
p11
F0
sS'isLocked'
p12
I01
sS'per'
p13
F0
sS'period'
p14
F594.7688720661987
sS'epoch'
p15
F1525247496.432312
sS'smi'
p16
I150000
sS'spin'
p17
F0.0068838989822476698
sS'dayProgressAtEpoch'
p18
F1
sS'sma'
p19
F150032.45853252444
ssS'name'
p20
S'198:145:9w3:Harfang'
p21
sS'parent'
p22
(i__main__
locator
p23
(dp24
g7
I3
sg8
(dp25
Vspectral
p26
VB
sVabsMag
p27
F0.67433599308820957
sVpow
p28
VO6N6AErBNFFAh7PZxVTN9fZk4GIP3UXZn7eS4nVGx4=
p29
sVtrig
p30
V9w3
p31
sVlumiSU
p32
F46.678441488500347
sVyly
p33
F5.6352399999999996
sVnbPl
p34
I9
sVHZcenterAU
p35
F10.025926922754191
sVseed
p36
I31098407
sVxly
p37
F8.5411800000000007
sVfuel
p38
I0
sVy
I145
sVx
I198
sVmSU
p39
F2.825612
sVfuelQty
p40
F59.200000000000003
sVspin
p41
F5409216.2694857148
sVid
p42
Vquadrant:198:145:9w3
p43
sVcls
p44
I6
ssg20
S'198:145:9w3'
p45
sg22
(i__main__
locator
p46
(dp47
g7
I2
sg20
S'198:145'
p48
sbsbsbsg20
S'Harfang'
p49
sba(i__main__
sc
p50
(dp51
g4
(i__main__
locator
p52
(dp53
S'dynamic'
p54
(dp55
S'spinFormatted'
p56
S'18m55s'
p57
sS'fromPer'
p58
S'8m47s'
p59
sS'dayProgress'
p60
F0.34754764474928379
sS'toPer'
p61
S'10m8s'
p62
sS'meanAno'
p63
F2.1837062551915842
sS'rho'
p64
F375756.2734905968
sS'progress'
p65
S'46.47%'
p66
sS'localTimeFormatted'
p67
S'6m34s'
p68
sS'theta'
p69
F2.9197572242324901
sS'periodFormatted'
p70
S'18m55s'
p71
sS'localTime'
p72
F394.76667887314898
ssg7
I4
sg8
(dp73
g10
F0.74131000000000002
sg11
F0
sg12
I01
sg13
F0
sg14
F1135.8634847257513
sg15
F1525247496.432312
sg16
I155000
sg17
F0.013146568110251751
sg18
F1
sg19
F230942.4829206877
ssg20
S'198:145:9w3:Cromwell'
p74
sg22
(i__main__
locator
p75
(dp76
g7
I3
sg8
(dp77
Vspectral
p78
VB
sVabsMag
p79
F0.67433599308820957
sVpow
p80
VO6N6AErBNFFAh7PZxVTN9fZk4GIP3UXZn7eS4nVGx4=
p81
sVtrig
p82
V9w3
p83
sVlumiSU
p84
F46.678441488500347
sVyly
p85
F5.6352399999999996
sVnbPl
p86
I9
sVHZcenterAU
p87
F10.025926922754191
sVseed
p88
I31098407
sVxly
p89
F8.5411800000000007
sVfuel
p90
I0
sVy
I145
sVx
I198
sVmSU
p91
F2.825612
sVfuelQty
p92
F59.200000000000003
sVspin
p93
F5409216.2694857148
sVid
p94
Vquadrant:198:145:9w3
p95
sVcls
p96
I6
ssg20
S'198:145:9w3'
p97
sg22
(i__main__
locator
p98
(dp99
g7
I2
sg20
S'198:145'
p100
sbsbsbsg20
S'Cromwell'
p101
sba.