(lp1
(i__main__
sc
p2
(dp3
S'loc'
p4
(i__main__
locator
p5
(dp6
S'depth'
p7
I4
sS'static'
p8
(dp9
S'ecc'
p10
F0
sS'ano'
p11
F0
sS'isLocked'
p12
I01
sS'per'
p13
F0
sS'period'
p14
F594.57587102377693
sS'epoch'
p15
F1525205404.8440199
sS'smi'
p16
I150000
sS'spin'
p17
F0.0068816651738863067
sS'dayProgressAtEpoch'
p18
F1
sS'sma'
p19
F150000
ssS'name'
p20
S'198:145:9w3:Harfang'
p21
sS'parent'
p22
(i__main__
locator
p23
(dp24
g7
I3
sg8
(dp25
Vspectral
p26
VB
sVabsMag
p27
F0.67433599308820957
sVpow
p28
VO6N6AErBNFFAh7PZxVTN9fZk4GIP3UXZn7eS4nVGx4=
p29
sVtrig
p30
V9w3
p31
sVlumiSU
p32
F46.678441488500347
sVyly
p33
F5.6352399999999996
sVnbPl
p34
I9
sVHZcenterAU
p35
F10.025926922754191
sVseed
p36
I31098407
sVxly
p37
F8.5411800000000007
sVfuel
p38
I0
sVy
I145
sVx
I198
sVmSU
p39
F2.825612
sVfuelQty
p40
F59.200000000000003
sVspin
p41
F5409216.2694857148
sVid
p42
Vquadrant:198:145:9w3
p43
sVcls
p44
I6
ssg20
S'198:145:9w3'
p45
sg22
(i__main__
locator
p46
(dp47
g7
I2
sg20
S'198:145'
p48
sbsbsbsg20
S'Harfang'
p49
sba(i__main__
sc
p50
(dp51
g4
(i__main__
locator
p52
(dp53
S'dynamic'
p54
(dp55
S'spinFormatted'
p56
S'30d3h19m'
p57
sS'fromPer'
p58
S'9d23h7m'
p59
sS'dayProgress'
p60
F0.66948336650597184
sS'toPer'
p61
S'20d4h12m'
p62
sS'meanAno'
p63
F4.2064880518316343
sS'rho'
p64
F200000
sS'progress'
p65
S'33.06%'
p66
sS'localTimeFormatted'
p67
S'20d4h15m'
p68
sS'theta'
p69
F2.0771853071798474
sS'periodFormatted'
p70
S'30d3h19m'
p71
sS'localTime'
p72
F1743327.0583122631
ssg7
I5
sg8
(dp73
g10
F0
sg11
F0
sg12
I01
sg13
F0
sg14
F2603988.6060361327
sg15
F1525205404.8440199
sg16
I200000
sg17
F30.138757014307092
sg18
F1
sg19
F200000
ssg20
S'600:140:vFT:1:Cromwell'
p74
sg22
(i__main__
locator
p75
(dp76
g54
(dp77
VspinFormatted
p78
V0s
p79
sVfromPer
p80
V1y16d
p81
sVdayProgress
p82
F0.29611910000000002
sVtoPer
p83
V6y303d
p84
sVmeanAno
p85
F3.08847631081664
sVrho
p86
F946023220.01126945
sVtheta
p87
F3.0880218943117397
sVlocalTimeFormatted
p88
V0s
p89
sVprogress
p90
V13.26%
p91
sVperiodFormatted
p92
V7y320d
p93
sVlocalTime
p94
F0
ssg7
I4
sg8
(dp95
VmEA
p96
F0.11685127382727498
sVg
F6.0989125822932522
sVhasAtm
p97
I01
sVsmiAU
p98
F6.3211936294567712
sVano
p99
F5.7097124496809624
sVperiod
p100
F248408047.6748805
sVrank
p101
I1
sVdayProgressAtEpoch
p102
F0.29611910000000002
sVroche
p103
F788516.18826628989
sVhill
p104
F2893985.7261110554
sVisLocked
p105
I01
sVisIrr
p106
I00
sVper
p107
F3.9209590590502423
sVradEA
p108
F0.4332796121134786
sVsmaAU
p109
F6.3211941576761115
sVecc
p110
F0.00040881100000000003
sVinHZ
p111
I00
sVspin
p112
F0
sVdenEA
p113
F1.4314207099999998
sVmo
p114
(lp115
sVcls
p116
VE
ssg20
S'600:140:vFT:1'
p117
sg22
(i__main__
locator
p118
(dp119
g7
I3
sg8
(dp120
Vspectral
p121
VB
sVabsMag
p122
F-0.77775759018601631
sVpow
p123
VQBXJQ0m2hSNPnXkl2lahYDe5c7wbSrbaiWnoDqhiEU=
p124
sVtrig
p125
VvFT
p126
sVlumiSU
p127
F177.80901682884189
sVyly
p128
F1.61439
sVnbPl
p129
I6
sVHZcenterAU
p130
F16.600867526610248
sVseed
p131
I54561438
sVxly
p132
F1.1545700000000001
sVmSU
p133
F4.05597824
sVy
I140
sVx
I600
sVspin
p134
F6711188.1146181822
sVid
p135
Vquadrant:600:140:vFT
p136
sVcls
p137
I6
ssg20
S'600:140:vFT'
p138
sg22
(i__main__
locator
p139
(dp140
g7
I2
sg20
S'600:140'
p141
sbsbsbsbsg20
S'Cromwell'
p142
sba.