(lp1
(i__main__
sc
p2
(dp3
S'loc'
p4
(i__main__
locator
p5
(dp6
S'depth'
p7
I4
sS'static'
p8
(dp9
S'ecc'
p10
F0.020799999999999999
sS'ano'
p11
F0
sS'isLocked'
p12
I01
sS'per'
p13
F0
sS'period'
p14
F594.7688720661987
sS'epoch'
p15
F1526634997.37729
sS'smi'
p16
I150000
sS'spin'
p17
F0.0068838989822476698
sS'dayProgressAtEpoch'
p18
F1
sS'sma'
p19
F150032.45853252444
ssS'name'
p20
S'198:145:9w3:Harfang'
p21
sS'parent'
p22
(i__main__
locator
p23
(dp24
g7
I3
sg8
(dp25
Vspectral
p26
VB
sVirrOuterAU
p27
F2.7484980989530179
sVabsMag
p28
F0.67433599308820957
sVpow
p29
VO6N6AErBNFFAh7PZxVTN9fZk4GIP3UXZn7eS4nVGx4=
p30
sVtrig
p31
V9w3
p32
sVlumiSU
p33
F46.678441488500347
sVper
p34
F1.6483308334856013
sVyly
p35
F5.6352399999999996
sVnbPl
p36
I9
sVHZcenterAU
p37
F10.025926922754191
sVseed
p38
I31098407
sVlink
p39
I2
sVxly
p40
F8.5411800000000007
sVy
I145
sVx
I198
sVid
p41
Vquadrant:198:145:9w3
p42
sVspin
p43
F5409216.2694857148
sVmSU
p44
F2.825612
sVcls
p45
I6
ssg20
S'198:145:9w3'
p46
sg22
(i__main__
locator
p47
(dp48
g7
I2
sg20
S'198:145'
p49
sbsbsbsg20
S'Harfang'
p50
sba(i__main__
sc
p51
(dp52
g4
(i__main__
locator
p53
(dp54
S'dynamic'
p55
(dp56
S'spinFormatted'
p57
S'20m43s'
p58
sS'fromPer'
p59
S'1s'
p60
sS'dayProgress'
p61
F8.0403486775848521e-05
sS'toPer'
p62
S'20m42s'
p63
sS'meanAno'
p64
F0.00050519000675662302
sS'rho'
p65
F245330.33178174659
sS'progress'
p66
S'0.11%'
p67
sS'localTimeFormatted'
p68
S'0s'
p69
sS'theta'
p70
F0.0070922567779336133
sS'periodFormatted'
p71
S'20m43s'
p72
sS'localTime'
p73
F0.099999904632455491
ssg7
I4
sg8
(dp74
g10
F0.79130999999999996
sg11
F0
sg12
I01
sg13
F0
sg14
F1243.7259706315785
sg15
F1526634997.37729
sg16
I150005
sg17
F0.014394976511939566
sg18
F1
sg19
F245340.66640483594
ssg20
S'198:145:9w3:Cromwell'
p75
sg22
(i__main__
locator
p76
(dp77
g7
I3
sg8
(dp78
Vspectral
p79
VB
sVirrOuterAU
p80
F2.7484980989530179
sVabsMag
p81
F0.67433599308820957
sVpow
p82
VO6N6AErBNFFAh7PZxVTN9fZk4GIP3UXZn7eS4nVGx4=
p83
sVtrig
p84
V9w3
p85
sVlumiSU
p86
F46.678441488500347
sVper
p87
F1.6483308334856013
sVyly
p88
F5.6352399999999996
sVnbPl
p89
I9
sVHZcenterAU
p90
F10.025926922754191
sVseed
p91
I31098407
sVlink
p92
I2
sVxly
p93
F8.5411800000000007
sVy
I145
sVx
I198
sVid
p94
Vquadrant:198:145:9w3
p95
sVspin
p96
F5409216.2694857148
sVmSU
p97
F2.825612
sVcls
p98
I6
ssg20
S'198:145:9w3'
p99
sg22
(i__main__
locator
p100
(dp101
g7
I2
sg20
S'198:145'
p102
sbsbsbsg20
S'Cromwell'
p103
sba.